Certificate:
    Data:
        Version: 3 (0x2)
        Serial Number: 4096 (0x1000)
        Signature Algorithm: sha256WithRSAEncryption
        Issuer: C=US, ST=New York, L=New York, O=Security Project, OU=Insecurity Department, CN=ROOT CA
        Validity
            Not Before: Dec 21 05:19:46 2020 GMT
            Not After : Dec 19 05:19:46 2030 GMT
        Subject: C=US, ST=New York, O=Security Project, OU=Insecurity Department, CN=INTERMEDIATE CA
        Subject Public Key Info:
            Public Key Algorithm: rsaEncryption
                RSA Public-Key: (4096 bit)
                Modulus:
                    00:c7:58:42:3e:18:b3:57:a2:1c:0c:cc:3e:6e:c3:
                    26:20:fe:a1:15:ef:31:39:85:29:cf:48:b0:06:83:
                    d0:4c:57:56:48:3c:70:8a:0f:39:57:f2:c7:a0:48:
                    fc:f3:5c:47:1e:38:59:ff:8d:5e:7e:f0:7f:04:cf:
                    dd:a5:ca:0c:57:d5:00:fe:64:bd:e8:5c:f1:dd:b5:
                    86:fc:79:4d:74:86:58:60:9f:86:f4:2a:3a:6b:81:
                    0f:c2:f7:bf:1d:c2:bc:71:eb:db:ec:4a:a5:10:fa:
                    0b:bc:06:90:eb:5f:ac:06:23:be:c0:43:1d:88:6d:
                    88:55:9e:8f:1b:ff:7f:a1:37:e5:49:e5:c3:fc:3f:
                    75:b9:b5:e9:53:a8:e7:c2:f6:f1:12:14:0d:91:02:
                    03:5d:3b:77:47:e7:01:f2:bb:c5:ea:3f:92:3d:13:
                    4f:3f:d6:15:56:ad:1a:3e:38:c8:da:58:a7:e0:ad:
                    86:8d:11:10:a7:7e:41:f2:55:82:33:98:8c:05:29:
                    76:0c:ef:6d:63:0d:be:60:ef:56:f2:10:e7:66:f2:
                    02:e1:88:11:fa:a1:aa:1b:12:27:30:7b:8d:77:d4:
                    ce:6a:d5:2c:4a:28:d3:aa:80:92:a7:74:e8:9d:c4:
                    bf:d6:92:4c:25:8c:d0:5d:5b:47:20:76:32:dc:6a:
                    5c:d7:fa:8a:41:a7:2a:4d:34:9c:ac:74:bb:89:c1:
                    62:69:e3:ce:77:64:a8:91:28:ac:a2:62:78:5e:80:
                    13:a8:f4:9c:8b:67:ef:21:ff:2b:a1:03:22:c7:88:
                    e7:b0:5d:d9:4d:8b:66:d4:5c:7a:06:db:3f:b0:6d:
                    b3:7b:b7:34:11:1b:0c:13:6b:25:b5:9b:98:7a:c8:
                    11:10:98:39:c2:1d:0d:c6:16:a2:ce:47:40:10:4e:
                    6b:63:a1:94:db:34:ad:8d:c9:34:37:33:f6:05:7e:
                    11:f1:7b:01:01:3c:7e:a7:68:b7:3a:19:08:1b:3f:
                    08:16:1e:b0:f0:a4:25:6b:47:2d:89:62:9d:b1:27:
                    45:5e:e4:53:a5:cf:91:f9:32:10:7d:31:f0:6d:44:
                    47:d7:e6:b7:93:c8:21:4e:6c:92:b0:2b:0f:18:bb:
                    31:68:43:44:5d:a2:10:c4:1c:d2:fb:5d:94:50:72:
                    1a:6b:03:46:4a:05:d8:b5:83:f1:75:d4:62:a9:73:
                    c5:35:35:0c:8f:d1:94:5e:1d:0c:22:69:f9:21:7b:
                    66:93:78:5f:1b:30:e6:f9:12:19:37:57:5f:b9:79:
                    70:18:54:9d:5a:b6:b8:03:65:a6:ff:e3:98:22:18:
                    87:dd:f7:58:75:b7:f5:7b:85:c3:2c:e6:5b:89:06:
                    b5:d0:45
                Exponent: 65537 (0x10001)
        X509v3 extensions:
            X509v3 Subject Key Identifier: 
                AF:43:45:9A:5F:42:B5:10:D6:7D:D4:7A:DF:40:3C:7E:E3:4B:E2:A9
            X509v3 Authority Key Identifier: 
                keyid:B2:9F:1D:9C:36:81:68:D3:0C:43:3C:14:25:DC:A0:2D:3D:5C:F1:1C

            X509v3 Basic Constraints: critical
                CA:TRUE, pathlen:0
            X509v3 Key Usage: critical
                Digital Signature, Certificate Sign, CRL Sign
    Signature Algorithm: sha256WithRSAEncryption
         0a:59:3e:c0:fa:42:38:78:8f:cf:f7:99:59:af:c7:89:47:bb:
         2b:eb:9d:62:97:9a:f8:63:ff:c4:aa:aa:04:bf:73:9e:cd:96:
         56:68:11:82:17:de:b5:bf:54:c7:f3:a2:eb:2e:ea:40:da:1c:
         e3:3a:3c:13:f2:fa:9b:f5:a4:9f:0b:98:df:cd:c4:8c:20:09:
         81:46:4d:ef:30:f6:93:f7:47:4a:57:31:c5:b6:ee:8c:98:2d:
         57:00:36:b6:d4:75:36:71:88:93:c3:3a:65:33:cc:98:1b:fa:
         60:a7:6b:de:20:71:0c:62:48:14:68:3d:5d:0d:38:c7:e1:56:
         14:19:95:9d:3a:8c:d7:b8:e6:f7:8a:b9:b8:91:07:fd:35:55:
         2f:54:3f:82:6b:a4:cf:d9:2d:6d:aa:80:1d:e6:68:fc:f3:4d:
         7c:35:40:09:47:0d:96:23:d7:fc:e1:0f:79:84:46:40:6a:fa:
         e0:d1:fb:82:e9:6f:bc:48:a8:94:fb:8e:be:6e:a4:32:12:96:
         ab:dc:ef:85:37:0b:33:06:8f:7b:4c:c3:36:78:a6:90:7c:5e:
         c4:66:90:4e:3c:99:31:ea:62:9d:a8:13:26:0f:c9:4a:ab:2b:
         e0:ee:e5:37:0e:35:7f:64:c1:74:f1:33:0c:27:cb:15:82:8d:
         89:09:1f:66:23:95:7f:61:3c:73:cc:29:3b:ca:c5:79:4a:76:
         3b:13:69:15:05:c9:d2:32:43:e1:a3:b6:c3:f5:2f:4b:dd:0d:
         e9:4e:4f:92:3c:18:15:c0:2b:03:c7:37:ac:59:80:8f:2b:70:
         99:76:1d:34:29:e5:0b:91:73:55:23:33:15:c3:94:ac:6b:6b:
         43:b3:41:18:10:81:bb:78:da:61:47:04:ae:20:93:ae:10:d3:
         bb:f0:8b:7b:6a:e0:d9:e5:c3:ff:35:3e:d2:c9:82:51:cf:f0:
         68:a4:0f:90:f7:07:c6:b3:79:05:ca:34:52:7b:7a:d6:d3:d7:
         ea:e7:bf:26:f0:63:24:6e:a9:2c:85:86:dd:25:61:bb:7a:39:
         50:2b:5c:c3:01:8f:9d:40:b1:ef:7e:5c:95:fb:d6:9c:15:28:
         75:5d:37:48:03:24:e9:d7:7b:6f:80:b5:3f:a5:a6:7f:ff:0c:
         bd:dd:5e:1c:90:c8:38:b0:99:fa:7d:40:43:65:a1:87:cc:e8:
         a6:39:d8:e1:54:df:91:15:d3:e4:48:2f:a6:43:5c:1d:a4:0a:
         e0:61:e7:35:e1:65:a6:ca:a2:bd:07:37:47:1e:15:3d:70:bc:
         42:3e:e2:47:90:ba:b8:b8:a0:4b:6a:8d:1b:ce:fd:2f:4d:52:
         b9:d4:76:94:bc:e5:b8:12
-----BEGIN CERTIFICATE-----
MIIF2DCCA8CgAwIBAgICEAAwDQYJKoZIhvcNAQELBQAwgYAxCzAJBgNVBAYTAlVT
MREwDwYDVQQIDAhOZXcgWW9yazERMA8GA1UEBwwITmV3IFlvcmsxGTAXBgNVBAoM
EFNlY3VyaXR5IFByb2plY3QxHjAcBgNVBAsMFUluc2VjdXJpdHkgRGVwYXJ0bWVu
dDEQMA4GA1UEAwwHUk9PVCBDQTAeFw0yMDEyMjEwNTE5NDZaFw0zMDEyMTkwNTE5
NDZaMHUxCzAJBgNVBAYTAlVTMREwDwYDVQQIDAhOZXcgWW9yazEZMBcGA1UECgwQ
U2VjdXJpdHkgUHJvamVjdDEeMBwGA1UECwwVSW5zZWN1cml0eSBEZXBhcnRtZW50
MRgwFgYDVQQDDA9JTlRFUk1FRElBVEUgQ0EwggIiMA0GCSqGSIb3DQEBAQUAA4IC
DwAwggIKAoICAQDHWEI+GLNXohwMzD5uwyYg/qEV7zE5hSnPSLAGg9BMV1ZIPHCK
DzlX8segSPzzXEceOFn/jV5+8H8Ez92lygxX1QD+ZL3oXPHdtYb8eU10hlhgn4b0
KjprgQ/C978dwrxx69vsSqUQ+gu8BpDrX6wGI77AQx2IbYhVno8b/3+hN+VJ5cP8
P3W5telTqOfC9vESFA2RAgNdO3dH5wHyu8XqP5I9E08/1hVWrRo+OMjaWKfgrYaN
ERCnfkHyVYIzmIwFKXYM721jDb5g71byEOdm8gLhiBH6oaobEicwe4131M5q1SxK
KNOqgJKndOidxL/WkkwljNBdW0cgdjLcalzX+opBpypNNJysdLuJwWJp4853ZKiR
KKyiYnhegBOo9JyLZ+8h/yuhAyLHiOewXdlNi2bUXHoG2z+wbbN7tzQRGwwTayW1
m5h6yBEQmDnCHQ3GFqLOR0AQTmtjoZTbNK2NyTQ3M/YFfhHxewEBPH6naLc6GQgb
PwgWHrDwpCVrRy2JYp2xJ0Ve5FOlz5H5MhB9MfBtREfX5reTyCFObJKwKw8YuzFo
Q0RdohDEHNL7XZRQchprA0ZKBdi1g/F11GKpc8U1NQyP0ZReHQwiafkhe2aTeF8b
MOb5Ehk3V1+5eXAYVJ1atrgDZab/45giGIfd91h1t/V7hcMs5luJBrXQRQIDAQAB
o2YwZDAdBgNVHQ4EFgQUr0NFml9CtRDWfdR630A8fuNL4qkwHwYDVR0jBBgwFoAU
sp8dnDaBaNMMQzwUJdygLT1c8RwwEgYDVR0TAQH/BAgwBgEB/wIBADAOBgNVHQ8B
Af8EBAMCAYYwDQYJKoZIhvcNAQELBQADggIBAApZPsD6Qjh4j8/3mVmvx4lHuyvr
nWKXmvhj/8SqqgS/c57NllZoEYIX3rW/VMfzousu6kDaHOM6PBPy+pv1pJ8LmN/N
xIwgCYFGTe8w9pP3R0pXMcW27oyYLVcANrbUdTZxiJPDOmUzzJgb+mCna94gcQxi
SBRoPV0NOMfhVhQZlZ06jNe45veKubiRB/01VS9UP4JrpM/ZLW2qgB3maPzzTXw1
QAlHDZYj1/zhD3mERkBq+uDR+4Lpb7xIqJT7jr5upDISlqvc74U3CzMGj3tMwzZ4
ppB8XsRmkE48mTHqYp2oEyYPyUqrK+Du5TcONX9kwXTxMwwnyxWCjYkJH2YjlX9h
PHPMKTvKxXlKdjsTaRUFydIyQ+GjtsP1L0vdDelOT5I8GBXAKwPHN6xZgI8rcJl2
HTQp5QuRc1UjMxXDlKxra0OzQRgQgbt42mFHBK4gk64Q07vwi3tq4Nnlw/81PtLJ
glHP8GikD5D3B8azeQXKNFJ7etbT1+rnvybwYyRuqSyFht0lYbt6OVArXMMBj51A
se9+XJX71pwVKHVdN0gDJOnXe2+AtT+lpn//DL3dXhyQyDiwmfp9QENloYfM6KY5
2OFU35EV0+RIL6ZDXB2kCuBh5zXhZabKor0HN0ceFT1wvEI+4keQuri4oEtqjRvO
/S9NUrnUdpS85bgS
-----END CERTIFICATE-----
