Certificate:
    Data:
        Version: 3 (0x2)
        Serial Number: 4097 (0x1001)
        Signature Algorithm: sha256WithRSAEncryption
        Issuer: C=US, ST=New York, O=Security Project, OU=Insecurity Department, CN=INTERMEDIATE CA
        Validity
            Not Before: Dec 21 05:20:44 2020 GMT
            Not After : Mar 29 05:20:44 2031 GMT
        Subject: C=US, ST=New York, L=New York, O=Security Project, OU=Insecurity Clients Department, CN=starshine
        Subject Public Key Info:
            Public Key Algorithm: rsaEncryption
                RSA Public-Key: (2048 bit)
                Modulus:
                    00:c0:9a:b2:37:f9:56:3f:2a:8a:e1:d8:b1:5a:07:
                    08:b6:74:5f:cc:bb:d7:d8:c6:90:c3:12:f5:b7:21:
                    7a:3d:a7:9d:8b:53:23:dc:5a:ff:4f:65:5f:0a:d2:
                    21:ef:2f:8f:e9:34:9d:84:10:f6:05:70:ea:58:5c:
                    f1:7e:a5:ab:92:6d:1a:24:6d:41:7f:a3:46:5b:3a:
                    1b:75:b6:dd:19:79:cc:f0:38:48:a6:fc:85:de:0e:
                    d4:92:e5:92:c2:fd:ad:57:e3:9e:d9:7d:01:ce:8a:
                    1d:f3:b5:c9:c6:a4:ad:b6:16:78:e9:5f:41:6d:c4:
                    aa:5a:37:a8:db:46:30:77:b7:26:01:36:57:9f:c0:
                    a9:7f:b7:83:6e:fe:e5:1f:fd:41:2d:ab:a8:1f:88:
                    bc:95:53:5a:72:1c:0d:83:d5:39:cf:ed:4c:2a:0a:
                    21:dc:71:26:d9:5c:17:8e:dc:11:cb:2e:8d:d4:49:
                    17:36:19:1c:b9:9a:31:ed:bc:d3:8b:0b:30:aa:13:
                    13:cf:5a:fd:81:bc:42:11:bd:f5:25:f9:b1:46:94:
                    cb:34:aa:dc:d3:fe:c4:11:f5:6b:f9:be:f4:f0:23:
                    ab:b9:be:e4:8b:31:1f:e9:96:c7:80:b0:52:bc:c2:
                    74:6f:e2:aa:17:f1:0d:f0:67:51:de:74:11:27:6c:
                    c0:b1
                Exponent: 65537 (0x10001)
        X509v3 extensions:
            X509v3 Basic Constraints: 
                CA:FALSE
            Netscape Cert Type: 
                SSL Client, S/MIME
            Netscape Comment: 
                OpenSSL Generated Client, Encryption, Signing Certificate
            X509v3 Subject Key Identifier: 
                C6:64:E1:2C:E0:6D:09:6E:29:C6:0F:3B:15:88:89:42:AF:2D:37:B1
            X509v3 Authority Key Identifier: 
                keyid:AF:43:45:9A:5F:42:B5:10:D6:7D:D4:7A:DF:40:3C:7E:E3:4B:E2:A9

            X509v3 Key Usage: critical
                Digital Signature, Non Repudiation, Key Encipherment, Data Encipherment, Certificate Sign
            X509v3 Extended Key Usage: 
                TLS Web Client Authentication, E-mail Protection
    Signature Algorithm: sha256WithRSAEncryption
         2a:40:59:d0:ae:43:af:18:47:a1:79:05:a3:0e:f8:fa:04:c1:
         6c:01:1c:ca:71:82:4d:fe:4e:85:5b:ca:bb:25:61:65:cc:aa:
         cb:02:d8:71:9a:3b:86:78:d2:b1:cb:b2:bf:3d:51:78:5b:a3:
         c0:fd:af:17:1b:c5:a5:a7:3f:de:48:50:af:00:10:48:ae:50:
         5b:75:4e:39:14:1f:de:f2:78:cb:90:97:8a:a4:79:bd:98:f8:
         79:bc:89:58:a5:d0:fb:ee:bc:bc:61:cd:cb:a0:52:4d:1d:01:
         f8:5f:b2:aa:91:88:bd:1f:42:2e:d2:e9:cd:ee:19:0f:54:11:
         b0:a7:f3:ed:0e:f1:56:65:c9:3e:a4:52:f2:a7:67:c0:13:39:
         f6:04:c4:b6:f1:03:16:a1:76:3a:a9:30:78:1a:39:e1:12:80:
         d2:be:c5:f7:fc:66:e6:27:3e:81:b9:90:a8:24:29:25:37:35:
         82:76:73:9e:a7:58:cf:0a:b0:b7:34:2d:b8:1a:99:b6:9b:26:
         65:60:cc:aa:f0:c9:72:3f:35:cc:ba:1f:99:52:a4:75:fe:b0:
         65:ca:d7:ef:b0:dd:1d:94:a6:08:33:52:7d:a8:06:91:5b:d0:
         8d:14:c5:56:75:63:4a:24:36:98:6d:8c:a3:21:80:cb:01:01:
         3f:f6:b1:94:00:b0:06:0f:d1:57:3b:49:09:57:4e:cf:73:25:
         0b:fd:c2:bf:dc:b5:99:7f:5b:47:fa:6d:64:5e:42:ce:a2:c3:
         2c:40:27:d5:0d:07:e0:2f:5e:88:4a:9c:d9:fb:da:bd:8c:5a:
         18:3b:2f:f5:66:8e:4f:75:22:35:3f:6a:47:05:e1:cf:8c:4d:
         43:a1:97:ff:8b:0d:0e:fb:7b:05:a4:5c:de:a8:d6:0a:39:e0:
         94:18:6f:63:d5:35:4f:2d:08:3e:88:1c:d5:ea:b8:0a:28:c3:
         ea:1a:2b:49:e4:4b:d0:d7:a4:98:a1:57:db:1c:1e:e5:ee:e1:
         b6:9c:59:6a:a3:4e:62:62:0e:73:86:6b:5b:d9:de:ea:31:79:
         42:aa:37:b2:85:1f:38:f0:10:40:7f:9e:32:bb:74:e1:38:6a:
         7c:13:2f:45:69:49:69:0e:a7:a3:25:e3:b7:af:8b:23:53:27:
         22:01:17:cd:d0:8a:5c:1e:5e:be:e5:96:82:17:f8:a7:d8:70:
         3f:ac:ce:35:79:51:52:03:a1:51:8e:80:a6:94:50:e4:e4:a6:
         7e:11:57:17:32:dd:a9:ed:0d:b6:a9:be:91:7e:a4:43:3d:24:
         26:53:e3:e8:cf:8d:79:de:5f:18:c3:05:46:10:ed:25:7e:46:
         96:96:30:2c:54:da:96:39
-----BEGIN CERTIFICATE-----
MIIFVzCCAz+gAwIBAgICEAEwDQYJKoZIhvcNAQELBQAwdTELMAkGA1UEBhMCVVMx
ETAPBgNVBAgMCE5ldyBZb3JrMRkwFwYDVQQKDBBTZWN1cml0eSBQcm9qZWN0MR4w
HAYDVQQLDBVJbnNlY3VyaXR5IERlcGFydG1lbnQxGDAWBgNVBAMMD0lOVEVSTUVE
SUFURSBDQTAeFw0yMDEyMjEwNTIwNDRaFw0zMTAzMjkwNTIwNDRaMIGKMQswCQYD
VQQGEwJVUzERMA8GA1UECAwITmV3IFlvcmsxETAPBgNVBAcMCE5ldyBZb3JrMRkw
FwYDVQQKDBBTZWN1cml0eSBQcm9qZWN0MSYwJAYDVQQLDB1JbnNlY3VyaXR5IENs
aWVudHMgRGVwYXJ0bWVudDESMBAGA1UEAwwJc3RhcnNoaW5lMIIBIjANBgkqhkiG
9w0BAQEFAAOCAQ8AMIIBCgKCAQEAwJqyN/lWPyqK4dixWgcItnRfzLvX2MaQwxL1
tyF6Paedi1Mj3Fr/T2VfCtIh7y+P6TSdhBD2BXDqWFzxfqWrkm0aJG1Bf6NGWzob
dbbdGXnM8DhIpvyF3g7UkuWSwv2tV+Oe2X0Bzood87XJxqStthZ46V9BbcSqWjeo
20Ywd7cmATZXn8Cpf7eDbv7lH/1BLauoH4i8lVNachwNg9U5z+1MKgoh3HEm2VwX
jtwRyy6N1EkXNhkcuZox7bzTiwswqhMTz1r9gbxCEb31JfmxRpTLNKrc0/7EEfVr
+b708COrub7kizEf6ZbHgLBSvMJ0b+KqF/EN8GdR3nQRJ2zAsQIDAQABo4HaMIHX
MAkGA1UdEwQCMAAwEQYJYIZIAYb4QgEBBAQDAgWgMEgGCWCGSAGG+EIBDQQ7FjlP
cGVuU1NMIEdlbmVyYXRlZCBDbGllbnQsIEVuY3J5cHRpb24sIFNpZ25pbmcgQ2Vy
dGlmaWNhdGUwHQYDVR0OBBYEFMZk4SzgbQluKcYPOxWIiUKvLTexMB8GA1UdIwQY
MBaAFK9DRZpfQrUQ1n3Uet9APH7jS+KpMA4GA1UdDwEB/wQEAwIC9DAdBgNVHSUE
FjAUBggrBgEFBQcDAgYIKwYBBQUHAwQwDQYJKoZIhvcNAQELBQADggIBACpAWdCu
Q68YR6F5BaMO+PoEwWwBHMpxgk3+ToVbyrslYWXMqssC2HGaO4Z40rHLsr89UXhb
o8D9rxcbxaWnP95IUK8AEEiuUFt1TjkUH97yeMuQl4qkeb2Y+Hm8iVil0PvuvLxh
zcugUk0dAfhfsqqRiL0fQi7S6c3uGQ9UEbCn8+0O8VZlyT6kUvKnZ8ATOfYExLbx
AxahdjqpMHgaOeESgNK+xff8ZuYnPoG5kKgkKSU3NYJ2c56nWM8KsLc0Lbgambab
JmVgzKrwyXI/Ncy6H5lSpHX+sGXK1++w3R2UpggzUn2oBpFb0I0UxVZ1Y0okNpht
jKMhgMsBAT/2sZQAsAYP0Vc7SQlXTs9zJQv9wr/ctZl/W0f6bWReQs6iwyxAJ9UN
B+AvXohKnNn72r2MWhg7L/Vmjk91IjU/akcF4c+MTUOhl/+LDQ77ewWkXN6o1go5
4JQYb2PVNU8tCD6IHNXquAoow+oaK0nkS9DXpJihV9scHuXu4bacWWqjTmJiDnOG
a1vZ3uoxeUKqN7KFHzjwEEB/njK7dOE4anwTL0VpSWkOp6Ml47eviyNTJyIBF83Q
ilweXr7lloIX+KfYcD+szjV5UVIDoVGOgKaUUOTkpn4RVxcy3antDbapvpF+pEM9
JCZT4+jPjXneXxjDBUYQ7SV+RpaWMCxU2pY5
-----END CERTIFICATE-----
-----BEGIN RSA PRIVATE KEY-----
MIIEowIBAAKCAQEAwJqyN/lWPyqK4dixWgcItnRfzLvX2MaQwxL1tyF6Paedi1Mj
3Fr/T2VfCtIh7y+P6TSdhBD2BXDqWFzxfqWrkm0aJG1Bf6NGWzobdbbdGXnM8DhI
pvyF3g7UkuWSwv2tV+Oe2X0Bzood87XJxqStthZ46V9BbcSqWjeo20Ywd7cmATZX
n8Cpf7eDbv7lH/1BLauoH4i8lVNachwNg9U5z+1MKgoh3HEm2VwXjtwRyy6N1EkX
NhkcuZox7bzTiwswqhMTz1r9gbxCEb31JfmxRpTLNKrc0/7EEfVr+b708COrub7k
izEf6ZbHgLBSvMJ0b+KqF/EN8GdR3nQRJ2zAsQIDAQABAoIBACtzettX29Y6QcS7
vx8BUTzgOjCU/BgCi+wGXfqnic1ZABjLc96lhM2jn/Jv/4nXYA8LeLGvpeEKXUP8
C9s3guJwzKIFJ+6kph20mTdQPscdjFdxSyqo84ZqMBjHw/lLg4y9ZDvKkNrInAM8
Mr4mrq3SmgqEG92orYnW3rhBOHP5MEsFz0ChBxEe9V+DZ4pCEn3OE0y0XO7bj8m9
RSa+lwo+KZIB4YOVH8ZQ2Z7xhk5A7igMyWBj2orP8dxUiABG5ZSoDx/lOd2o8xZR
A+SQvY6U0l0jJG6/fCLvyzQVqRuDCk1w0IfcDPYtiO3HH6by1c9pIiZsxDZ4ODiA
izW9k0ECgYEA5zyHXM0ec0KIZlFxx8n+WhKtBSUNEkqP+uokv1NQr25hgynNdPzW
7fIKvaKVeGSBky+aQBW2nO2Rjrta+bHQ/6qIhf+qU0w4+yZEbBIq4PtT2MZKsqdE
BmYJ/vTV104W46rhePwy8XaHtra/tOLVN303x60Qfrx2JWCMeQQWEKkCgYEA1TsL
yFeopBTxozGE450zeZdXD85adiuoOsinPlQw2CUYreZ29yD45MfLP7Y7zsldwa2D
uA+EIDUgXU8v9g7IrX/rc51d+SqtSYeeRiDM47ujR2nC2XjdQFtR+rD85z58rFiS
e2PVkFxnBe1QL+aXvdXbSXusjUbghbPlfKMbzMkCgYA0blkTBb99yvw6lwUBlB+E
NO/eVsRb/WQgNK8YYr/Mx2582yGnAR2K3nLpBNB3d/KZeRW0qje55XQ3tOuv6k3F
atmB6LKqKIJTEB47kvL+CH6+jFeropmeCc0Cbml+ZEp0XO67DBRRA9tJ5q4ZScWm
y1G2iNtQoVL4rqerWO3X4QKBgBC2tSC6BkT+Q0aIbiMtQkionTFm+l5C48ffzIQt
MzruBXY0F2Udl4TPSFYxIZT+4bN5t1ZpGPExWN0XhOnjlMVMvpbsYd5TAww9biGP
FqBPJ+hEGPrU53rQ7acZ0mkJ09nqg2jalXXgWE71oBBxIbnGlo62+/qC8LxqMnXH
jzlJAoGBAJWr5zN9uZaMh/5Z1Oj/O+TC64MX9baJg7+NdJpVOn5BP7OjIRP8bZn3
+6ukZUzNyibqjJjj/Nj63pzBqVEGVS4GwAT1rjJkfUxEUaLnWhvG3DrVbcF+saJr
HjQvYcFmt8Ggxu0Z4hqtBq3HbjDUtfuVTFP6M3R5HqIiZq7h60me
-----END RSA PRIVATE KEY-----
