Certificate:
    Data:
        Version: 3 (0x2)
        Serial Number: 4096 (0x1000)
        Signature Algorithm: sha256WithRSAEncryption
        Issuer: C=US, ST=New York, L=New York, O=Security Project, OU=Insecurity Department, CN=ROOT CA
        Validity
            Not Before: Dec 13 23:01:44 2020 GMT
            Not After : Dec 11 23:01:44 2030 GMT
        Subject: C=US, ST=New York, O=Security Project, OU=Insecurity Department, CN=INTERMEDIATE CA
        Subject Public Key Info:
            Public Key Algorithm: rsaEncryption
                RSA Public-Key: (4096 bit)
                Modulus:
                    00:c7:83:d6:82:e5:cb:5f:23:9c:a0:7b:cb:a2:7e:
                    f0:86:46:af:62:42:e1:8d:e6:c8:7c:47:37:1c:63:
                    07:a3:bf:aa:86:4c:9e:7a:f2:15:56:7a:4e:f7:a7:
                    bd:99:90:cb:c1:d9:a9:72:c0:af:ef:66:36:33:55:
                    bd:d2:47:e3:a5:07:86:06:94:98:ba:96:1e:a1:b0:
                    b8:91:1b:2d:32:6c:5d:c0:d8:f8:31:66:8e:c8:4d:
                    e5:2e:e6:0c:19:17:6f:eb:ca:f5:c3:fb:c9:97:0a:
                    0c:f9:b5:4d:02:13:31:a1:36:f9:f4:b6:1a:07:4e:
                    ef:7d:d5:e4:14:63:b7:b7:fe:7c:23:a5:71:ab:f3:
                    e7:74:ad:0f:05:69:23:48:60:da:7a:6d:eb:ca:13:
                    aa:49:c9:9f:5c:b6:59:a5:15:14:de:60:25:14:2c:
                    bd:92:e5:6e:c9:4b:2d:ad:db:44:0c:2d:96:f9:fc:
                    23:b1:56:cb:6d:b7:9f:7c:71:5b:f7:24:74:b4:bd:
                    61:17:b5:ea:4f:85:3b:4d:ac:10:b2:69:48:24:25:
                    5a:49:0c:dc:22:b3:83:c7:23:56:0b:e9:66:fc:70:
                    f2:93:f0:21:41:cf:46:d4:12:96:9e:88:cc:f0:4c:
                    63:19:ae:00:26:75:02:60:7f:71:e5:9c:80:f0:2f:
                    2c:fa:26:bb:ae:98:de:b6:fd:b3:65:ce:61:81:0c:
                    f5:48:a3:b8:e5:bc:fa:d2:8b:85:73:3c:5a:58:69:
                    f0:e0:48:31:cb:bb:c1:2b:b4:39:38:34:5d:a4:f1:
                    26:29:8c:37:56:75:b9:84:61:be:6c:32:33:05:d8:
                    c7:1b:ea:b7:3c:e9:ae:4e:85:4e:f2:2b:64:00:44:
                    89:65:b3:7a:80:53:d3:62:3b:94:e1:b2:ec:00:42:
                    e6:40:39:d7:c6:07:ea:43:3b:74:09:17:d4:05:e5:
                    77:7b:fe:05:d6:e8:4a:e5:1a:0a:eb:c6:d4:0c:3e:
                    be:b7:e4:cb:98:92:f4:5d:87:43:39:e2:d2:4e:79:
                    e0:02:92:c9:6a:a4:d6:83:e6:21:52:dc:95:45:fc:
                    e9:5b:2d:66:67:38:48:a5:fe:81:07:09:cf:ab:bb:
                    68:1c:3d:4a:9d:19:20:8f:7b:b4:c5:06:71:43:be:
                    e5:85:65:bb:d5:f2:b7:d3:06:bb:a9:53:ce:48:ef:
                    fc:78:d6:52:6e:18:9c:cb:2f:72:3b:79:91:0f:3c:
                    f6:22:be:74:f4:cc:73:53:cc:97:af:b8:b0:e0:d5:
                    34:08:ef:4c:56:1d:72:fb:03:be:4f:b3:25:1a:e1:
                    16:c8:df:cd:d6:0d:4e:73:0d:7d:a3:5f:80:48:12:
                    61:b4:27
                Exponent: 65537 (0x10001)
        X509v3 extensions:
            X509v3 Subject Key Identifier: 
                56:14:87:8B:C3:8C:2D:C3:43:87:AF:B4:67:A9:55:14:AA:52:17:69
            X509v3 Authority Key Identifier: 
                keyid:5F:27:D6:4C:AC:E5:C7:A1:25:81:79:72:B2:A5:E5:FD:39:84:59:87

            X509v3 Basic Constraints: critical
                CA:TRUE, pathlen:0
            X509v3 Key Usage: critical
                Digital Signature, Certificate Sign, CRL Sign
    Signature Algorithm: sha256WithRSAEncryption
         84:83:f8:a4:42:be:c0:ba:ae:b4:85:f6:6d:24:0b:d5:19:57:
         aa:a8:d3:af:31:a1:00:ca:cf:de:99:ee:f6:bf:a2:cb:19:e8:
         3c:28:94:40:ad:c7:6c:2e:d9:13:b9:36:12:9c:3b:1a:06:4c:
         2c:98:73:09:38:63:5b:e4:aa:22:e0:da:5d:87:25:cd:65:0d:
         e9:86:9b:25:6c:b5:76:8e:c3:b2:3c:ba:00:fb:3f:0e:ef:69:
         20:c5:ab:ee:6f:58:6c:e9:c3:82:4f:fe:5d:04:86:05:f2:08:
         0d:c7:52:d4:74:c0:84:58:43:15:bb:f8:eb:ac:d4:71:df:bf:
         f2:c5:da:67:f1:da:1e:d4:16:85:ee:09:1a:03:9d:d4:28:2f:
         04:de:41:de:29:77:4e:d9:a3:32:fe:06:dc:b6:fa:15:27:17:
         57:48:4e:b5:0e:f0:1d:2f:c9:1b:04:b3:f2:b2:cb:e6:e6:51:
         36:35:75:f6:e1:81:02:6f:c7:a3:19:4c:ad:fc:3d:a3:4c:d2:
         ec:cf:c1:16:81:57:64:18:e7:a6:39:ed:d2:94:9e:89:ca:9a:
         9b:8f:57:ed:09:21:8a:29:ed:fd:16:c2:4b:b0:4f:3b:2a:85:
         c7:a8:b4:2a:56:d4:fb:b0:cd:a5:1b:ba:be:6e:c7:95:fa:b3:
         b7:1e:d5:6b:9a:6e:e1:a1:3c:12:41:4d:19:5c:c5:ce:c5:20:
         23:18:0b:e6:37:8c:c8:7b:87:da:51:6e:5b:19:ef:2e:3c:85:
         39:17:5e:0f:55:07:f5:fb:97:12:b1:2f:15:7a:87:e2:a7:a9:
         8a:32:2f:84:e7:b1:76:f0:1d:52:c5:54:96:c3:be:7e:14:67:
         31:b7:0e:cf:0c:51:aa:8e:b1:0a:0b:77:56:9e:20:30:55:1b:
         cf:32:2e:2b:80:f7:3d:8e:54:0c:12:8b:77:25:d4:1e:44:55:
         4e:29:1a:84:b6:cb:7b:31:d1:7c:df:17:d7:5c:f2:46:94:76:
         7f:53:76:71:0c:3e:1e:29:32:6c:1d:32:91:90:77:08:8c:c5:
         ee:d8:9e:64:a4:4b:1e:27:41:df:6a:a4:90:01:29:f4:7b:e6:
         a3:af:a2:84:a6:af:4b:80:4f:44:f3:3b:78:de:dd:be:01:99:
         8b:2f:4d:25:e4:eb:42:a0:af:1e:e1:c1:2a:7b:c7:06:8b:03:
         c8:b9:ce:36:9d:4e:f3:20:3e:88:46:a8:5c:73:49:c0:d4:1b:
         22:93:0f:40:2e:cc:5f:96:29:f2:d5:bf:e7:4d:16:ac:30:ce:
         c8:1e:e6:7c:cc:cf:12:08:c8:26:b4:fa:67:b6:dc:82:44:64:
         f4:52:6c:a8:b9:0f:39:c5
-----BEGIN CERTIFICATE-----
MIIF2DCCA8CgAwIBAgICEAAwDQYJKoZIhvcNAQELBQAwgYAxCzAJBgNVBAYTAlVT
MREwDwYDVQQIDAhOZXcgWW9yazERMA8GA1UEBwwITmV3IFlvcmsxGTAXBgNVBAoM
EFNlY3VyaXR5IFByb2plY3QxHjAcBgNVBAsMFUluc2VjdXJpdHkgRGVwYXJ0bWVu
dDEQMA4GA1UEAwwHUk9PVCBDQTAeFw0yMDEyMTMyMzAxNDRaFw0zMDEyMTEyMzAx
NDRaMHUxCzAJBgNVBAYTAlVTMREwDwYDVQQIDAhOZXcgWW9yazEZMBcGA1UECgwQ
U2VjdXJpdHkgUHJvamVjdDEeMBwGA1UECwwVSW5zZWN1cml0eSBEZXBhcnRtZW50
MRgwFgYDVQQDDA9JTlRFUk1FRElBVEUgQ0EwggIiMA0GCSqGSIb3DQEBAQUAA4IC
DwAwggIKAoICAQDHg9aC5ctfI5yge8uifvCGRq9iQuGN5sh8RzccYwejv6qGTJ56
8hVWek73p72ZkMvB2alywK/vZjYzVb3SR+OlB4YGlJi6lh6hsLiRGy0ybF3A2Pgx
Zo7ITeUu5gwZF2/ryvXD+8mXCgz5tU0CEzGhNvn0thoHTu991eQUY7e3/nwjpXGr
8+d0rQ8FaSNIYNp6bevKE6pJyZ9ctlmlFRTeYCUULL2S5W7JSy2t20QMLZb5/COx
Vsttt598cVv3JHS0vWEXtepPhTtNrBCyaUgkJVpJDNwis4PHI1YL6Wb8cPKT8CFB
z0bUEpaeiMzwTGMZrgAmdQJgf3HlnIDwLyz6JruumN62/bNlzmGBDPVIo7jlvPrS
i4VzPFpYafDgSDHLu8ErtDk4NF2k8SYpjDdWdbmEYb5sMjMF2Mcb6rc86a5OhU7y
K2QARIlls3qAU9NiO5ThsuwAQuZAOdfGB+pDO3QJF9QF5Xd7/gXW6ErlGgrrxtQM
Pr635MuYkvRdh0M54tJOeeACkslqpNaD5iFS3JVF/OlbLWZnOEil/oEHCc+ru2gc
PUqdGSCPe7TFBnFDvuWFZbvV8rfTBrupU85I7/x41lJuGJzLL3I7eZEPPPYivnT0
zHNTzJevuLDg1TQI70xWHXL7A75PsyUa4RbI383WDU5zDX2jX4BIEmG0JwIDAQAB
o2YwZDAdBgNVHQ4EFgQUVhSHi8OMLcNDh6+0Z6lVFKpSF2kwHwYDVR0jBBgwFoAU
XyfWTKzlx6ElgXlysqXl/TmEWYcwEgYDVR0TAQH/BAgwBgEB/wIBADAOBgNVHQ8B
Af8EBAMCAYYwDQYJKoZIhvcNAQELBQADggIBAISD+KRCvsC6rrSF9m0kC9UZV6qo
068xoQDKz96Z7va/ossZ6DwolECtx2wu2RO5NhKcOxoGTCyYcwk4Y1vkqiLg2l2H
Jc1lDemGmyVstXaOw7I8ugD7Pw7vaSDFq+5vWGzpw4JP/l0EhgXyCA3HUtR0wIRY
QxW7+Ous1HHfv/LF2mfx2h7UFoXuCRoDndQoLwTeQd4pd07ZozL+Bty2+hUnF1dI
TrUO8B0vyRsEs/Kyy+bmUTY1dfbhgQJvx6MZTK38PaNM0uzPwRaBV2QY56Y57dKU
nonKmpuPV+0JIYop7f0WwkuwTzsqhceotCpW1PuwzaUbur5ux5X6s7ce1WuabuGh
PBJBTRlcxc7FICMYC+Y3jMh7h9pRblsZ7y48hTkXXg9VB/X7lxKxLxV6h+KnqYoy
L4TnsXbwHVLFVJbDvn4UZzG3Ds8MUaqOsQoLd1aeIDBVG88yLiuA9z2OVAwSi3cl
1B5EVU4pGoS2y3sx0XzfF9dc8kaUdn9TdnEMPh4pMmwdMpGQdwiMxe7YnmSkSx4n
Qd9qpJABKfR75qOvooSmr0uAT0TzO3je3b4BmYsvTSXk60Kgrx7hwSp7xwaLA8i5
zjadTvMgPohGqFxzScDUGyKTD0AuzF+WKfLVv+dNFqwwzsge5nzMzxIIyCa0+me2
3IJEZPRSbKi5DznF
-----END CERTIFICATE-----
-----BEGIN CERTIFICATE-----
MIIF8zCCA9ugAwIBAgIUOZy4BXMEX6i6jh0BXg4M3BQex84wDQYJKoZIhvcNAQEL
BQAwgYAxCzAJBgNVBAYTAlVTMREwDwYDVQQIDAhOZXcgWW9yazERMA8GA1UEBwwI
TmV3IFlvcmsxGTAXBgNVBAoMEFNlY3VyaXR5IFByb2plY3QxHjAcBgNVBAsMFUlu
c2VjdXJpdHkgRGVwYXJ0bWVudDEQMA4GA1UEAwwHUk9PVCBDQTAeFw0yMDEyMTMy
MzAxNDNaFw00MDEyMDgyMzAxNDNaMIGAMQswCQYDVQQGEwJVUzERMA8GA1UECAwI
TmV3IFlvcmsxETAPBgNVBAcMCE5ldyBZb3JrMRkwFwYDVQQKDBBTZWN1cml0eSBQ
cm9qZWN0MR4wHAYDVQQLDBVJbnNlY3VyaXR5IERlcGFydG1lbnQxEDAOBgNVBAMM
B1JPT1QgQ0EwggIiMA0GCSqGSIb3DQEBAQUAA4ICDwAwggIKAoICAQCp2S+c7s7G
qwAbw4ZEdIEU33TBF3bkTvHgy6Zv/8uYybSzLw3WWJY7eca4LYra7pPSYa4Pwsow
hOn//qCFKJ0mdgNyj/LZfvG7FJb66jFp1naRX7KnfWX7t3BCiIi/DY27149FTA4B
YNnHopL22kF8GggDeYYQ6YT31izvioNmB66Nf+xWuHg8z/jOJBMFNqaRdTNxKtqP
GHdrHqmlXOzP8LD2YZMcBNY/iaY5YCTAuEkSblTTCvL0NqNItIuZMnOZi1VomKWs
Tb5rKbzCtRZtChEcRf1XFMlM7fNiio+lL9JfDpaih3pn9iipdjYF1UL4lIl6UiMV
AK8FS47bxYye7tdPeLGwkvi4W7qW0n5HGrzvas0gQUTFE6KVigfxyVBjh+e0cv5R
/MuGO92qxFrP6gSW2pJiYeDk8SmQcxDjdoPuefQoF8hR+Kt8ctLFcqdqd0dw0uil
W+1/M0ko4acE1d5hI1ctnPvKddUln0n0KvCky2fK+Lq0Qxujg/29QFi4msEL5aT6
qMMyUpjJBhSLwXhnxeTVZOKoqHHWJI1Az1jyajrHX9TEB4drmrshVCpU4XXZrjdN
YjIOfgWfxqPxA84OgSfdVsepGVl9jt7PI/3rULWiIOP3iMj98UW406HhoauD6c8S
QbXMC+YgkiH7IjUFSdbhp9LNa3NT8Ho38wIDAQABo2MwYTAdBgNVHQ4EFgQUXyfW
TKzlx6ElgXlysqXl/TmEWYcwHwYDVR0jBBgwFoAUXyfWTKzlx6ElgXlysqXl/TmE
WYcwDwYDVR0TAQH/BAUwAwEB/zAOBgNVHQ8BAf8EBAMCAYYwDQYJKoZIhvcNAQEL
BQADggIBAJGJjuKLLFB3D/OMxQBlrgTViCYEfhbZi7AA36Si9C1tWmw409eGgTYw
6hoPVeTisNZ//hK+6L9BxHBLj2NNjh2TYJS7c21fJZQYl4QZJBOoMJJUhc7cDaOT
XKWJm6tUa+RKEOOf09YUXD1anZXff3qwjpFMc5Yohmidu1oTdBVmpmwnOVprLj7M
CLg3ssabauCRStugdOgnMOjAnbE5EluwI272jSZNbl4t+J4rCn/ubLyooonV0dxZ
AsojD9xfhT7FpwRHTsCRBFr8Z7nG/qkCNfBMBPoLtETTk/ud/EGV7aVRO8CMrbiM
V2hOyjFxz6HVK5iyDOhUxz0IeGU/3x1XGmRbXC2GdgZeGxQRmhV3pnIxUgG6rOru
OkuxbEvBU5Q80+cZDL9wJFD/Yz3P9wPB8akP/6IU7sihMT7laKaMPky9zwmLnq6/
Zk4rCpkwvPl+1oHdj63jRb9sHvPASz6Ljc38iG2TVPUIM74Y70KYXk3QMdZLfAeK
lDBSpDrDG5yooAMuegv3QYHOVSbZGyhrQvqhdr5Bac6lNmZCSruWYL/JXAfn6WvY
YmnSADe0dl+cMG+yhKn3znnxYSqnhKqfjrvz2X6TgGCIEKntEsoZyeDrw7B4k9oZ
1zekLRTuftnO6IggnR4vYRUx52OZY6I6O6fRf5MeQ0T871LNvlTj
-----END CERTIFICATE-----
