Certificate:
    Data:
        Version: 3 (0x2)
        Serial Number: 4097 (0x1001)
        Signature Algorithm: sha256WithRSAEncryption
        Issuer: C=US, ST=New York, O=Security Project, OU=Insecurity Department, CN=INTERMEDIATE CA
        Validity
            Not Before: Dec 22 03:15:43 2020 GMT
            Not After : Mar 30 03:15:43 2031 GMT
        Subject: C=US, ST=New York, L=New York, O=Security Project, OU=Insecurity Clients Department, CN=polypose
        Subject Public Key Info:
            Public Key Algorithm: rsaEncryption
                RSA Public-Key: (2048 bit)
                Modulus:
                    00:c8:27:82:43:3c:a3:a0:a6:f3:8e:9e:44:91:15:
                    0e:e4:9d:13:76:fe:b3:22:a4:1b:db:ba:aa:6a:ee:
                    0a:4c:2f:30:4f:0a:1b:2e:f5:13:06:b0:6b:bf:e1:
                    2a:ad:45:f2:85:a7:72:70:53:6e:0a:d5:de:40:33:
                    f9:18:d9:47:e3:58:93:06:cb:f8:68:34:21:05:6e:
                    2f:76:83:2e:aa:e8:ad:52:7d:2f:0c:34:5d:4f:97:
                    03:15:d0:85:0b:ca:63:02:4e:64:08:a2:83:61:ff:
                    ab:d9:33:64:1d:0e:79:2d:e6:19:5e:16:34:14:2f:
                    cd:9b:4b:4f:77:72:4d:48:64:a2:68:e9:6f:73:d2:
                    c7:49:c6:7b:9b:1e:e0:fd:56:93:55:79:e4:3d:63:
                    08:bf:73:88:56:11:a8:0b:84:50:dc:11:b6:a8:9d:
                    9a:a1:09:b3:fe:b4:4b:5a:07:65:60:80:cc:23:75:
                    e9:32:92:cd:3b:3a:15:7e:7a:54:c3:17:3b:65:6e:
                    61:30:ce:a2:41:c0:d4:92:5c:09:83:4b:f2:f6:ba:
                    bb:ce:7f:bf:c2:a2:08:84:d5:35:64:a7:81:43:ea:
                    37:62:c0:c0:6f:07:85:b0:57:b6:08:da:a8:28:39:
                    45:d0:c3:8c:63:20:34:cd:36:81:db:04:e6:4e:a0:
                    ba:3d
                Exponent: 65537 (0x10001)
        X509v3 extensions:
            X509v3 Basic Constraints: 
                CA:FALSE
            Netscape Cert Type: 
                SSL Client, S/MIME
            Netscape Comment: 
                OpenSSL Generated Client, Encryption, Signing Certificate
            X509v3 Subject Key Identifier: 
                D9:4D:45:82:9A:29:E2:B3:BF:A7:55:C7:37:57:70:FE:49:42:F4:40
            X509v3 Authority Key Identifier: 
                keyid:BA:81:8B:7A:1D:31:DF:38:66:28:75:C3:49:96:58:9F:F7:90:24:84

            X509v3 Key Usage: critical
                Digital Signature, Non Repudiation, Key Encipherment, Data Encipherment, Certificate Sign
            X509v3 Extended Key Usage: 
                TLS Web Client Authentication, E-mail Protection
    Signature Algorithm: sha256WithRSAEncryption
         50:65:91:0b:e1:bb:d1:46:3e:2a:a8:d9:29:81:17:56:46:fe:
         3d:b1:7c:75:63:8a:1c:a3:ab:f8:ed:86:33:45:99:1f:81:ad:
         39:55:f5:e2:f7:c5:2b:2d:15:3b:4f:a6:7c:1e:ef:4d:7e:99:
         0b:40:82:88:87:09:63:22:93:be:00:e8:b0:72:90:6c:3a:47:
         ff:f5:56:4a:80:7f:25:7b:c8:5f:a5:93:a6:e5:b9:39:ff:41:
         52:61:4e:14:73:fe:f2:48:b9:b9:04:9f:f1:e8:d6:1b:dc:f2:
         45:3c:35:5d:db:13:67:58:fe:d7:30:72:1d:bd:31:02:6d:28:
         e0:74:de:41:35:95:0e:7e:6a:87:a4:2c:cf:68:39:e7:f1:09:
         3e:4c:a7:04:30:f0:75:b2:ab:91:58:38:9c:53:7c:a0:0d:97:
         f6:1a:34:bb:6e:65:91:12:22:bc:c0:9f:2d:4f:f5:34:24:58:
         08:c6:89:19:fa:ac:0b:87:c7:30:41:9e:57:f2:9d:ff:6f:bf:
         82:98:84:e0:2c:b6:f0:cf:d6:5f:8d:80:bb:42:40:57:68:cf:
         d9:42:cd:e0:61:ce:f7:be:f3:dd:17:e9:ac:20:d4:58:9d:99:
         26:8a:88:40:38:8d:a0:b1:a6:1c:02:8d:1d:38:95:43:f8:b4:
         02:78:65:4a:0d:60:83:d5:2b:b8:59:ef:5d:b8:68:e1:94:08:
         e5:7d:00:c2:18:a5:08:1d:ce:2d:c7:7b:f5:fc:b5:f0:b4:94:
         a9:3d:23:d0:c5:a1:a1:79:ea:47:d4:21:a0:c0:0a:1f:f0:b6:
         5b:ce:e4:85:41:57:1a:ba:a6:eb:3b:e3:79:dd:bf:5a:b1:a7:
         fc:fa:73:73:ab:1b:e4:d3:a9:a4:15:d8:03:9a:7f:74:06:2e:
         17:9b:82:4a:4c:c5:14:51:65:1b:05:45:f2:62:e5:14:d0:e0:
         b7:f8:7e:4b:2b:9e:38:5e:b0:96:e5:26:34:f5:48:11:2d:61:
         45:70:33:51:a8:22:ad:76:df:06:7e:31:ab:3d:93:9a:4a:bf:
         89:b1:15:a2:ee:7d:45:18:b8:d1:d6:fd:1c:ed:01:a9:33:d4:
         05:27:8a:ad:7b:8a:27:0d:2c:10:d3:43:cd:b9:a3:df:00:99:
         25:0a:cb:a4:09:86:de:a9:a2:25:66:73:a7:70:f9:c0:79:41:
         2f:16:4b:e5:98:ba:85:df:ee:b8:43:fa:f3:e9:2d:86:38:2d:
         ef:01:c3:76:d8:fe:91:72:18:2f:09:ea:c8:ca:78:bf:77:81:
         d9:2c:8b:28:71:bd:07:24:7a:f9:0f:a0:6a:2d:05:01:c8:d1:
         7f:ff:2a:76:b0:77:44:86
-----BEGIN CERTIFICATE-----
MIIFVjCCAz6gAwIB111CEAEwDQYJKoZIhvcNAQELBQAwdTELMAkGA1UEBhMCVVMx
ETAPBgNVBAgMCE5ldyBZb3JrMRkwFwYDVQQKDBBTZWN1cml0eSBQcm9qZWN0MR4w
HAYDVQQLDBVJbnNlY3VyaXR5IERlcGFydG1lbnQxGDAWBgNVBAMMD0lOVEVSTUVE
SUFURSBDQTAeFw0yMDEyMjIwMzE1NDNaFw0zMTAzMzAwMzE1NDNaMIGJMQswCQYD
VQQGEwJVUzERMA8GA1UECAwITmV3IFlvcmsxETAPBgNVBAcMCE5ldyBZb3JrMRkw
FwYDVQQKDBBTZWN1cml0eSBQcm9qZWN0MSYwJAYDVQQLDB1JbnNlY3VyaXR5IENs
aWVudHMgRGVwYXJ0bWVudDERMA8GA1UEAwwIcG9seXBvc2UwggEiMA0GCSqGSIb3
DQEBAQUAA4IBDwAwggEKAoIBAQDIJ4JDPKOgpvOOnkSRFQ7knnbg/rMipBvbuqpq
7gpMLzBPChsu9RMGsGu/4SqtRfKFp3JwU24K1d5AM/kY2UfjWJMGy/hoNCEFbi92
gy6q6K1SfS8MNF1PlwMV0IULymMCTmQIooNh/6vZM2QdDnkt5hleFjQUL82bS093
ck1IZKJo6W9z0sdJxnubHuD9VpNVeeQ9Ywi/c4hWEagLhFDcEbaonZqhCbP+tEta
B2VggMwjdekyks07OhV+elTDFztlbmEwzqJBwNSSXAmDS/L2urvOf7/CogiE1TVk
p4FD6jdiwMBvB4WwV7YI2qgoOUXQw4xjIDTNNoHbBOZOoLo9AgMBAAGjgdowgdcw
CQYDVR0TBAIwADARBglghkgBhvhCAQEEBAMCBaAwSAYJYIZIAYb4QgENBDsWOU9w
ZW5TU0wgR2VuZXJhdGVkIENsaWVudCwgRW5jcnlwdGlvbiwgU2lnbmluZyBDZXJ0
aWZpY2F0ZTAdBgNVHQ4EFgQU2U1Fgpop4rO/p1XHN1dw/klC9EAwHwYDVR0jBBgw
FoAUuogtyh0x3zhmKHXDSZZYn/eQJIQwDgYDVR0PAQH/BAQDAgL0MB0GA1UdJQQW
MBQGCCsGAQUFBwMCBggrBgEFBQcDBDANBgkqhkiG9w0BAQsFAAOCAgEAUGWRC+G7
0UY+KqjZKYEXVkb+PbF8dWOKHKOr+O2888WZH4GtOVX14vfFKy0VO0+mfB7vTX6Z
C0CCiIcJYyKTvgDosHKQbDpH//VWSoB/JXvIX6WTpuW5Of9BUmFOFHP+8ki5uQSf
8ejWG9zyRTw1XdsTZ1j+1zByHb0xAm0o4HTeQTWVDn5qh6Qsz2g55/EJPkynBDDw
dbKrkVg4nFN8oA2X9ho0u25lkRIivMCfLU/1NCRYCMaJGfqsC4fHMEGeV/Kd/2+/
gpiE4Cy28M/WX42Au0JAV2jP2ULN4GHO977z3RfprCDUWJ2ZJoqIQDiNoLGmHAKN
HTiVQ/i0AnhlSg1gg9UruFnvXbho4ZQI5X0AwhilCB3OLcd79fy18LSUqT0j0MWh
oXnqR9QhoMAKH/C2W87khUFXGrqm6zvjed2/WrGn/Ppzc6sb5NOppBXYA5p/dAYu
F5uCSkzFFFFlGwVF8mLlFNDgt/h+SyueOF6wluUmNPVIES1hRXAzUagirXbfBn4x
qz2Tmkq/ibEVou59RRi40db9HO0BqTPUBSeKrX999w0sENNDzbmj3wCZJQrLpAmG
3qmiJWZzp3D5wHlBLxZL5Zi6hd/uuEP68+kthjgt7wHDdtj+kXIYLwnqyMp4v3eB
2SyLKHG9ByR6+Q+gai0FAcjRf/8qdrB3RIY=
-----END CERTIFICATE-----
