Certificate:
    Data:
        Version: 3 (0x2)
        Serial Number: 4096 (0x1000)
        Signature Algorithm: sha256WithRSAEncryption
        Issuer: C=US, ST=New York, L=New York, O=Security Project, OU=Insecurity Department, CN=ROOT CA
        Validity
            Not Before: Dec 19 23:35:12 2020 GMT
            Not After : Dec 17 23:35:12 2030 GMT
        Subject: C=US, ST=New York, O=Security Project, OU=Insecurity Department, CN=INTERMEDIATE CA
        Subject Public Key Info:
            Public Key Algorithm: rsaEncryption
                RSA Public-Key: (4096 bit)
                Modulus:
                    00:cf:54:40:27:80:d6:76:5c:fd:0b:52:25:34:d6:
                    b9:bf:b3:eb:17:fe:77:50:f7:52:14:7b:55:ea:0d:
                    a4:5a:51:80:bc:d4:8a:47:bb:c6:ad:f0:07:93:48:
                    3d:1c:a3:e1:d6:34:5a:d3:8c:14:04:1f:bb:3d:f3:
                    be:0c:1a:ad:41:c9:99:ef:cb:bf:04:af:47:99:3d:
                    5d:21:21:d3:5c:2a:46:7b:b7:80:c9:f6:94:86:f8:
                    b9:f2:d3:6a:06:77:d9:11:2b:b0:39:e4:ec:ad:80:
                    98:98:8b:f0:35:52:01:ac:8e:68:ad:72:bc:37:b5:
                    d2:7a:01:32:9e:6f:b8:08:a4:f6:89:4e:6c:bf:8e:
                    04:e3:a8:e1:a3:c2:dc:69:83:53:0e:51:d1:53:ad:
                    1a:1a:21:dc:5b:31:68:74:e8:d8:3b:2b:62:d5:1a:
                    db:86:36:58:b5:55:6a:62:46:9f:8b:7d:bd:67:76:
                    0c:a2:fb:a8:e5:86:b7:eb:99:b4:7a:e1:09:e7:df:
                    08:3b:63:d8:9e:fd:11:36:24:8a:f2:b9:d6:1d:d4:
                    71:40:37:e2:a8:28:65:7b:7a:64:42:6a:1f:72:f3:
                    b9:85:83:5f:eb:8d:c3:65:7f:0a:65:30:e3:9f:6e:
                    7b:e0:fd:fe:15:5e:95:12:13:4b:a7:83:89:57:95:
                    1c:90:47:93:d3:a9:66:c8:d8:df:52:e8:d0:3b:c7:
                    09:a0:c0:ac:39:db:7e:79:dc:8f:d3:a2:e3:94:d6:
                    b7:03:d8:df:4a:b7:0c:99:7c:62:a0:e0:a9:a0:c2:
                    c3:78:8a:25:0e:2c:fa:5d:be:59:72:dc:eb:70:91:
                    bb:9c:97:44:bd:5b:ac:60:2e:f5:9e:7f:d0:40:31:
                    b5:7c:24:b6:14:a3:03:c3:3c:c2:f4:89:e5:46:d9:
                    a7:a4:7e:7e:e5:b9:59:10:cf:d6:8e:2c:b9:0b:1a:
                    d8:3b:58:79:ce:1d:89:ff:cb:c6:ea:1c:7f:fa:85:
                    76:dc:6e:17:f5:78:23:8a:58:8e:32:ce:24:d3:b6:
                    b7:2b:d0:77:1f:71:65:7d:ef:98:c4:cc:df:df:ce:
                    bc:01:36:52:6a:9a:e5:05:ee:1b:92:fe:39:1e:e8:
                    fa:f8:c1:0a:07:7b:54:d4:9e:16:86:1e:46:e9:37:
                    fa:69:c6:27:7d:ed:2b:ad:6c:9d:3a:6f:27:bb:28:
                    d2:31:43:2d:50:6e:0b:fa:03:f0:f9:95:72:6f:1c:
                    e6:b2:01:30:c7:cc:e2:6c:44:dc:5d:ac:7b:2f:e2:
                    21:f7:1c:b4:dd:43:51:04:19:7e:87:c5:4a:57:f9:
                    4b:75:96:bd:97:22:5e:9a:eb:e4:01:45:7d:55:36:
                    89:20:f7
                Exponent: 65537 (0x10001)
        X509v3 extensions:
            X509v3 Subject Key Identifier: 
                B9:65:98:2D:3A:67:D3:7C:DC:A8:2A:3D:B0:CD:43:00:35:A4:C5:AB
            X509v3 Authority Key Identifier: 
                keyid:FA:B2:CC:5A:E5:46:05:C2:17:A6:AF:F0:30:0D:CD:6B:A6:89:30:D1

            X509v3 Basic Constraints: critical
                CA:TRUE, pathlen:0
            X509v3 Key Usage: critical
                Digital Signature, Certificate Sign, CRL Sign
    Signature Algorithm: sha256WithRSAEncryption
         18:6b:61:d0:bc:f2:04:d9:4c:3b:59:1e:2d:8f:d3:e6:e5:4a:
         72:e8:68:9f:07:aa:7b:15:a9:7f:14:be:64:0c:e4:ca:90:a9:
         ea:d0:9f:b5:ca:db:ab:85:65:4f:0f:1e:9c:2c:61:be:95:01:
         f3:64:bf:f2:44:32:1d:11:17:9c:c4:e4:e7:bf:c7:aa:c0:7a:
         e8:dc:b0:f0:48:a9:47:4d:29:bf:3d:61:cd:7c:71:41:8e:a5:
         f3:7d:2e:a4:25:a9:13:40:39:de:8c:41:ab:59:12:01:36:fe:
         38:78:a8:01:79:75:61:3a:2f:c1:0e:17:f6:47:bc:45:f7:eb:
         c8:28:02:aa:27:d6:c2:79:1a:87:a0:1a:42:63:5a:e3:cb:f0:
         b5:4e:27:bf:d2:0f:05:0d:2e:d2:b1:0e:69:dc:68:0b:7c:1e:
         3b:e8:2f:71:24:60:62:45:20:7c:ed:f8:f1:41:aa:cf:3b:88:
         32:0f:9d:67:36:20:15:2e:f7:f2:85:69:98:5e:31:2b:81:74:
         49:e6:e4:5a:a8:1b:64:7b:c6:49:d3:a8:bc:d5:38:8b:ab:93:
         a8:54:b9:c7:ce:41:88:ec:58:98:f0:57:13:fc:d7:0d:87:4a:
         37:5a:d2:f8:ef:92:88:8d:21:f3:e2:e8:89:90:96:77:26:be:
         e8:35:06:e2:c2:4e:dd:87:36:df:5c:ea:62:44:42:59:37:e3:
         c3:0c:94:dc:e1:07:79:d9:82:b7:ab:ca:9c:f6:dd:5e:9f:0a:
         52:66:64:43:f5:0f:5e:a7:a9:10:9c:2b:29:47:4a:76:85:00:
         e8:a8:1a:a7:ce:91:9d:52:94:4d:01:3b:ca:40:fe:2d:07:ba:
         8e:19:e5:eb:50:3d:cc:f9:89:a6:ae:20:a2:d1:8f:b2:8e:6a:
         f5:7b:14:24:13:42:02:ba:f8:8d:40:64:77:62:3f:e8:a1:19:
         40:03:43:af:fb:66:11:38:d8:e7:88:c0:e5:c4:b0:5e:c6:0e:
         93:f3:3e:81:b0:98:3b:fc:f7:f8:9c:a0:81:c3:00:2e:bb:56:
         62:26:33:ff:7a:98:c6:7a:3c:3c:19:ea:1f:a3:65:12:ac:5b:
         17:6f:21:0d:37:18:44:e8:16:83:91:62:be:9c:b9:d8:4b:3e:
         b1:74:76:2c:5f:27:61:d0:12:9f:99:51:15:17:e9:d5:db:c1:
         a8:76:63:dc:a3:70:97:40:a4:42:a7:2f:74:09:4a:26:91:ec:
         9e:44:02:13:82:9a:c8:21:7a:38:bc:16:7c:4c:41:0b:ec:08:
         e5:78:40:a0:4a:b1:8f:a2:cd:5f:80:9e:db:a8:72:a8:97:5e:
         6e:5a:22:b2:00:46:2d:fd
-----BEGIN CERTIFICATE-----
MIIF2DCCA8CgAwIBAgICEAAwDQYJKoZIhvcNAQELBQAwgYAxCzAJBgNVBAYTAlVT
MREwDwYDVQQIDAhOZXcgWW9yazERMA8GA1UEBwwITmV3IFlvcmsxGTAXBgNVBAoM
EFNlY3VyaXR5IFByb2plY3QxHjAcBgNVBAsMFUluc2VjdXJpdHkgRGVwYXJ0bWVu
dDEQMA4GA1UEAwwHUk9PVCBDQTAeFw0yMDEyMTkyMzM1MTJaFw0zMDEyMTcyMzM1
MTJaMHUxCzAJBgNVBAYTAlVTMREwDwYDVQQIDAhOZXcgWW9yazEZMBcGA1UECgwQ
U2VjdXJpdHkgUHJvamVjdDEeMBwGA1UECwwVSW5zZWN1cml0eSBEZXBhcnRtZW50
MRgwFgYDVQQDDA9JTlRFUk1FRElBVEUgQ0EwggIiMA0GCSqGSIb3DQEBAQUAA4IC
DwAwggIKAoICAQDPVEAngNZ2XP0LUiU01rm/s+sX/ndQ91IUe1XqDaRaUYC81IpH
u8at8AeTSD0co+HWNFrTjBQEH7s9874MGq1ByZnvy78Er0eZPV0hIdNcKkZ7t4DJ
9pSG+Lny02oGd9kRK7A55OytgJiYi/A1UgGsjmitcrw3tdJ6ATKeb7gIpPaJTmy/
jgTjqOGjwtxpg1MOUdFTrRoaIdxbMWh06Ng7K2LVGtuGNli1VWpiRp+Lfb1ndgyi
+6jlhrfrmbR64Qnn3wg7Y9ie/RE2JIryudYd1HFAN+KoKGV7emRCah9y87mFg1/r
jcNlfwplMOOfbnvg/f4VXpUSE0ung4lXlRyQR5PTqWbI2N9S6NA7xwmgwKw52355
3I/TouOU1rcD2N9KtwyZfGKg4KmgwsN4iiUOLPpdvlly3Otwkbucl0S9W6xgLvWe
f9BAMbV8JLYUowPDPML0ieVG2aekfn7luVkQz9aOLLkLGtg7WHnOHYn/y8bqHH/6
hXbcbhf1eCOKWI4yziTTtrcr0HcfcWV975jEzN/fzrwBNlJqmuUF7huS/jke6Pr4
wQoHe1TUnhaGHkbpN/ppxid97SutbJ06bye7KNIxQy1Qbgv6A/D5lXJvHOayATDH
zOJsRNxdrHsv4iH3HLTdQ1EEGX6HxUpX+Ut1lr2XIl6a6+QBRX1VNokg9wIDAQAB
o2YwZDAdBgNVHQ4EFgQUuWWYLTpn03zcqCo9sM1DADWkxaswHwYDVR0jBBgwFoAU
+rLMWuVGBcIXpq/wMA3Na6aJMNEwEgYDVR0TAQH/BAgwBgEB/wIBADAOBgNVHQ8B
Af8EBAMCAYYwDQYJKoZIhvcNAQELBQADggIBABhrYdC88gTZTDtZHi2P0+blSnLo
aJ8HqnsVqX8UvmQM5MqQqerQn7XK26uFZU8PHpwsYb6VAfNkv/JEMh0RF5zE5Oe/
x6rAeujcsPBIqUdNKb89Yc18cUGOpfN9LqQlqRNAOd6MQatZEgE2/jh4qAF5dWE6
L8EOF/ZHvEX368goAqon1sJ5GoegGkJjWuPL8LVOJ7/SDwUNLtKxDmncaAt8Hjvo
L3EkYGJFIHzt+PFBqs87iDIPnWc2IBUu9/KFaZheMSuBdEnm5FqoG2R7xknTqLzV
OIurk6hUucfOQYjsWJjwVxP81w2HSjda0vjvkoiNIfPi6ImQlncmvug1BuLCTt2H
Nt9c6mJEQlk348MMlNzhB3nZgrerypz23V6fClJmZEP1D16nqRCcKylHSnaFAOio
GqfOkZ1SlE0BO8pA/i0Huo4Z5etQPcz5iaauIKLRj7KOavV7FCQTQgK6+I1AZHdi
P+ihGUADQ6/7ZhE42OeIwOXEsF7GDpPzPoGwmDv89/icoIHDAC67VmImM/96mMZ6
PDwZ6h+jZRKsWxdvIQ03GEToFoORYr6cudhLPrF0dixfJ2HQEp+ZURUX6dXbwah2
Y9yjcJdApEKnL3QJSiaR7J5EAhOCmsgheji8FnxMQQvsCOV4QKBKsY+izV+Antuo
cqiXXm5aIrIARi39
-----END CERTIFICATE-----
-----BEGIN CERTIFICATE-----
MIIF8zCCA9ugAwIBAgIULw7D79D2oG4hm98fVXhUc/5MxiAwDQYJKoZIhvcNAQEL
BQAwgYAxCzAJBgNVBAYTAlVTMREwDwYDVQQIDAhOZXcgWW9yazERMA8GA1UEBwwI
TmV3IFlvcmsxGTAXBgNVBAoMEFNlY3VyaXR5IFByb2plY3QxHjAcBgNVBAsMFUlu
c2VjdXJpdHkgRGVwYXJ0bWVudDEQMA4GA1UEAwwHUk9PVCBDQTAeFw0yMDEyMTky
MzM1MTFaFw00MDEyMTQyMzM1MTFaMIGAMQswCQYDVQQGEwJVUzERMA8GA1UECAwI
TmV3IFlvcmsxETAPBgNVBAcMCE5ldyBZb3JrMRkwFwYDVQQKDBBTZWN1cml0eSBQ
cm9qZWN0MR4wHAYDVQQLDBVJbnNlY3VyaXR5IERlcGFydG1lbnQxEDAOBgNVBAMM
B1JPT1QgQ0EwggIiMA0GCSqGSIb3DQEBAQUAA4ICDwAwggIKAoICAQDU4Twu7CQz
FJYCeDN5wk+j4/KEb2tVSRSlZCn9lMFkAlhia21drk0pywA9Z0qfSHDf2BJnXFf7
prNDlpEggJr33Vh+X5bs+jzxqFSkvT+8IvtKu9ME3d742miP8V+OP3am6BLaBAIu
+CdwRTYgmKn/eZ/aSxIlmz7LDlxvCiwEOR+g/EYo5NTSJv2Cp8jsZWm2+VXNfW9m
S7xDIDK04pqrVMKG/PpBKL+HoBvdNa/rMjEiQdKlORdtrcowA3jjjD2mdJ5kgbuW
JS6mze5KPubtaBD3VYeiEy4LcT/r+cuI0mZKTaThWZi2YJPihXCbkxv5lV0g7fZr
DCYwLObvrFLCURiprr9LPqdSxqBaEHlNgfwLHQcRnQitsYOd8tWdBBdK/Qjzmokl
0j2bHMSfKIvpK2m4MLq5ImwtdlP/dXDtr5j6rBNi0UcGmxLRsyjvlFYuWpd+o8IF
S2CBpU//Q990s2c/Lmxlj5n/1vMscF6Fp2t2fMR21EOiHR7nkpSUeDtiEmIa39sb
alUxXD9RG18z0mc6HUmCQOTpJGr83/8YWaLesH0lOecRsVfkvnh6VrBl5052+W8q
YLZnQStxujrZfBNEb+QTSGsgj6CzzcfJrnhEkcLevPVqi6VBYCcrzUwG4TUSJ77Y
1ytjCWLKax4hTDVg34ofYrbMuatynUq9BwIDAQABo2MwYTAdBgNVHQ4EFgQU+rLM
WuVGBcIXpq/wMA3Na6aJMNEwHwYDVR0jBBgwFoAU+rLMWuVGBcIXpq/wMA3Na6aJ
MNEwDwYDVR0TAQH/BAUwAwEB/zAOBgNVHQ8BAf8EBAMCAYYwDQYJKoZIhvcNAQEL
BQADggIBAMOPSey6iPS3Kpfnja+7Apyqsv2l4LVwOv1DFLeqmE9PALifAsHCuqIZ
y9AjbPPi6VXiMxhrCVqGokI+BSp8WyDagbXWgDNnD1ag+iaxbwrxeZp2ATS8pih1
de3bqrwSJZdfw9hsV0YfKzkCbzHvEjr/pSZ9Qkd86Juc5dHUEZ/H/QwDtYY9EZg8
hX7iaw4kknO2h4BxlNCWvU0MPmyNUQuwN8gRiT03KE+hcq2iLqrh3IMqFtqb1w9I
y8x0KI0W0OUbXTj5AifdADKFCe72lx4nDms5vYe+9LtO/cvpkXsymowT7kUJ1Qzj
Kq7IEHBb57RZwFMLd38OMjPJgzNpkUvTgrXQBFFqGRUHnV9F5/dDxEdY/XP4BCwm
qABjr/cGFtdYLt0kcb8bO4lDzYV2+GXvlEd9CNMN2aB2jVfFFKMVW2jfXChhm97m
vYxG1j3ObSF18s8i7onPPmQ07U7mHaS0AD1BBDP1hWzQScilYKIr82psDyvn/HSr
QvToRKqcOwdU09SyrobNmSBHTf714KnQLMMuu3Ua4pm/bfK5ybd/Z9PntlsFX+b8
vyF2IQTwDpMP1z/QT2YwRXMIieiFcTH9+U1yROXD9q8zYjyDr/ZdM09g/21Rd7sV
jSwvVa3HrAHZEmDRfopUY/6jaboCqLVGGEA4pfqRiEAru6zlBWbm
-----END CERTIFICATE-----
