Certificate:
    Data:
        Version: 3 (0x2)
        Serial Number: 4097 (0x1001)
        Signature Algorithm: sha256WithRSAEncryption
        Issuer: C=US, ST=New York, O=Security Project, OU=Insecurity Department, CN=INTERMEDIATE CA
        Validity
            Not Before: Dec 19 23:37:58 2020 GMT
            Not After : Mar 27 23:37:58 2031 GMT
        Subject: C=US, ST=New York, L=New York, O=Security Project, OU=Insecurity Clients Department, CN=starshine
        Subject Public Key Info:
            Public Key Algorithm: rsaEncryption
                RSA Public-Key: (2048 bit)
                Modulus:
                    00:df:d4:0d:b7:c1:69:20:8b:c6:74:75:60:9b:e1:
                    cc:0b:39:32:d7:07:c8:f5:57:23:8e:57:8b:bc:a1:
                    18:1e:48:83:d7:aa:bb:6e:16:0d:ec:8d:65:98:ab:
                    10:29:32:3e:6c:3f:56:f8:0e:7c:f9:42:18:cc:c1:
                    e7:ea:53:8b:bb:eb:c4:ab:ab:ac:83:37:ee:73:ee:
                    3f:c2:07:68:c8:a1:ec:bb:6f:66:ab:cb:f8:85:e4:
                    b1:61:1f:9a:7b:61:04:29:16:cf:2e:4d:47:74:97:
                    fa:67:89:25:ad:52:f9:bc:c4:18:9a:b8:b8:69:2d:
                    17:cb:12:33:a5:40:54:ee:5e:a6:89:f9:f2:a0:d7:
                    f3:b7:70:a8:a7:e5:e7:76:f0:5e:41:f5:32:7a:9c:
                    59:31:d6:5f:ed:4c:f4:75:ef:7e:35:61:0d:81:2d:
                    46:e2:6c:6c:de:07:d9:3f:87:bd:f1:83:15:b0:10:
                    7b:a3:10:57:32:f4:a0:bf:f1:82:61:97:31:cf:7b:
                    a5:5f:11:85:8d:36:97:3f:d5:f2:f9:c5:47:14:30:
                    dd:59:0a:7f:14:28:b9:f2:83:89:28:ad:ee:a5:28:
                    cc:b1:75:9e:5a:c4:c1:9b:b7:7c:3a:e7:cc:6f:d4:
                    90:93:5a:ac:ae:44:30:72:ed:bc:41:8b:65:5d:b5:
                    00:79
                Exponent: 65537 (0x10001)
        X509v3 extensions:
            X509v3 Basic Constraints: 
                CA:FALSE
            Netscape Cert Type: 
                SSL Client, S/MIME
            Netscape Comment: 
                OpenSSL Generated Client, Encryption, Signing Certificate
            X509v3 Subject Key Identifier: 
                64:73:C3:F1:F5:1D:BB:4F:04:13:28:55:2D:AD:25:97:B7:E3:8E:A9
            X509v3 Authority Key Identifier: 
                keyid:B9:65:98:2D:3A:67:D3:7C:DC:A8:2A:3D:B0:CD:43:00:35:A4:C5:AB

            X509v3 Key Usage: critical
                Digital Signature, Non Repudiation, Key Encipherment, Data Encipherment
            X509v3 Extended Key Usage: 
                TLS Web Client Authentication, E-mail Protection
    Signature Algorithm: sha256WithRSAEncryption
         4e:2a:62:af:e6:f3:ca:94:4a:aa:d0:2b:2b:4c:57:51:1f:49:
         07:bd:35:d8:72:d2:d5:da:ee:c5:c4:b4:c2:82:6f:c0:88:a3:
         97:4a:74:90:f4:46:a9:f8:8c:e8:9c:bc:38:44:d2:27:1b:15:
         06:e4:af:fa:a2:d5:17:0b:7e:e6:19:42:43:54:b7:b2:31:51:
         4c:67:54:2e:92:4c:93:50:e7:d1:a3:b3:6f:d1:58:a8:d5:d6:
         f1:11:e0:13:2b:df:2a:14:51:55:70:3c:dc:d9:e2:e8:df:d8:
         5f:fd:92:64:fc:2a:75:a1:c9:a1:e0:f2:6c:9f:17:aa:69:a4:
         38:6e:8a:d1:a6:b9:48:51:bd:b4:c8:ea:08:15:c8:01:8a:fa:
         a4:68:e4:b3:c2:11:fb:15:35:14:10:60:f1:75:4b:54:9a:12:
         c6:a9:f0:81:23:db:4f:c5:eb:bc:c5:da:57:8c:ee:65:af:41:
         12:bc:71:1e:72:f4:c3:2c:03:16:56:5e:e3:81:5f:6a:71:33:
         53:64:85:60:92:30:d0:aa:d0:44:9a:f6:ef:17:8e:13:8e:c8:
         8d:9c:fd:11:7f:79:f0:ea:46:fe:52:d9:21:da:65:e2:8c:b1:
         d0:10:41:26:c8:0b:cc:d3:8c:be:ef:9d:d6:07:6a:f5:56:7e:
         30:0c:b9:8d:98:0a:f5:6f:97:c1:5c:7e:65:3a:b7:c4:50:2d:
         fb:bd:54:a1:fd:8f:86:ec:91:9a:f4:07:d6:82:e6:8e:39:2c:
         16:50:a4:bb:56:17:d1:10:15:4f:3f:3b:1b:af:23:7b:5e:2c:
         01:16:56:16:76:7e:36:fc:13:76:bb:b6:11:b7:88:5a:3d:b6:
         ff:9c:bc:3b:18:97:5f:29:00:d0:ca:44:c3:4b:7c:11:0f:4a:
         5f:76:07:76:c2:22:8d:fa:4d:79:4d:13:f3:17:3e:60:71:5e:
         b2:bd:7b:f6:40:e2:30:f7:5e:ae:c2:7b:6e:33:44:82:c4:13:
         93:74:36:15:d3:55:cd:a9:7a:9c:e0:c0:49:df:c3:ae:80:73:
         f2:77:03:eb:4f:37:f8:dd:e3:85:3c:9c:df:b2:6a:aa:8a:d8:
         25:da:05:6f:e4:22:fa:8d:c7:fb:54:3b:09:c6:67:37:a4:19:
         2b:e1:39:88:59:06:35:bd:08:ce:16:f1:76:90:c3:48:b5:f0:
         b4:ff:c7:c0:18:c0:de:c0:cf:b2:5e:30:2d:37:42:45:d1:3b:
         0a:af:af:f5:b0:a1:05:58:1b:d2:b6:62:2f:07:c9:36:64:5f:
         66:bb:67:29:34:ba:db:c3:75:30:b5:84:74:49:9e:3f:5c:6c:
         16:1a:03:ce:5b:46:0b:02
-----BEGIN CERTIFICATE-----
MIIFVzCCAz+gAwIBAgICEAEwDQYJKoZIhvcNAQELBQAwdTELMAkGA1UEBhMCVVMx
ETAPBgNVBAgMCE5ldyBZb3JrMRkwFwYDVQQKDBBTZWN1cml0eSBQcm9qZWN0MR4w
HAYDVQQLDBVJbnNlY3VyaXR5IERlcGFydG1lbnQxGDAWBgNVBAMMD0lOVEVSTUVE
SUFURSBDQTAeFw0yMDEyMTkyMzM3NThaFw0zMTAzMjcyMzM3NThaMIGKMQswCQYD
VQQGEwJVUzERMA8GA1UECAwITmV3IFlvcmsxETAPBgNVBAcMCE5ldyBZb3JrMRkw
FwYDVQQKDBBTZWN1cml0eSBQcm9qZWN0MSYwJAYDVQQLDB1JbnNlY3VyaXR5IENs
aWVudHMgRGVwYXJ0bWVudDESMBAGA1UEAwwJc3RhcnNoaW5lMIIBIjANBgkqhkiG
9w0BAQEFAAOCAQ8AMIIBCgKCAQEA39QNt8FpIIvGdHVgm+HMCzky1wfI9VcjjleL
vKEYHkiD16q7bhYN7I1lmKsQKTI+bD9W+A58+UIYzMHn6lOLu+vEq6usgzfuc+4/
wgdoyKHsu29mq8v4heSxYR+ae2EEKRbPLk1HdJf6Z4klrVL5vMQYmri4aS0XyxIz
pUBU7l6mifnyoNfzt3Cop+XndvBeQfUyepxZMdZf7Uz0de9+NWENgS1G4mxs3gfZ
P4e98YMVsBB7oxBXMvSgv/GCYZcxz3ulXxGFjTaXP9Xy+cVHFDDdWQp/FCi58oOJ
KK3upSjMsXWeWsTBm7d8OufMb9SQk1qsrkQwcu28QYtlXbUAeQIDAQABo4HaMIHX
MAkGA1UdEwQCMAAwEQYJYIZIAYb4QgEBBAQDAgWgMEgGCWCGSAGG+EIBDQQ7FjlP
cGVuU1NMIEdlbmVyYXRlZCBDbGllbnQsIEVuY3J5cHRpb24sIFNpZ25pbmcgQ2Vy
dGlmaWNhdGUwHQYDVR0OBBYEFGRzw/H1HbtPBBMoVS2tJZe3446pMB8GA1UdIwQY
MBaAFLllmC06Z9N83KgqPbDNQwA1pMWrMA4GA1UdDwEB/wQEAwIE8DAdBgNVHSUE
FjAUBggrBgEFBQcDAgYIKwYBBQUHAwQwDQYJKoZIhvcNAQELBQADggIBAE4qYq/m
88qUSqrQKytMV1EfSQe9Ndhy0tXa7sXEtMKCb8CIo5dKdJD0Rqn4jOicvDhE0icb
FQbkr/qi1RcLfuYZQkNUt7IxUUxnVC6STJNQ59Gjs2/RWKjV1vER4BMr3yoUUVVw
PNzZ4ujf2F/9kmT8KnWhyaHg8myfF6pppDhuitGmuUhRvbTI6ggVyAGK+qRo5LPC
EfsVNRQQYPF1S1SaEsap8IEj20/F67zF2leM7mWvQRK8cR5y9MMsAxZWXuOBX2px
M1NkhWCSMNCq0ESa9u8XjhOOyI2c/RF/efDqRv5S2SHaZeKMsdAQQSbIC8zTjL7v
ndYHavVWfjAMuY2YCvVvl8FcfmU6t8RQLfu9VKH9j4bskZr0B9aC5o45LBZQpLtW
F9EQFU8/OxuvI3teLAEWVhZ2fjb8E3a7thG3iFo9tv+cvDsYl18pANDKRMNLfBEP
Sl92B3bCIo36TXlNE/MXPmBxXrK9e/ZA4jD3Xq7Ce24zRILEE5N0NhXTVc2pepzg
wEnfw66Ac/J3A+tPN/jd44U8nN+yaqqK2CXaBW/kIvqNx/tUOwnGZzekGSvhOYhZ
BjW9CM4W8XaQw0i18LT/x8AYwN7Az7JeMC03QkXROwqvr/WwoQVYG9K2Yi8HyTZk
X2a7Zyk0utvDdTC1hHRJnj9cbBYaA85bRgsC
-----END CERTIFICATE-----
